; Function Attrs: mustprogress nofree norecurse nosync nounwind memory(read, argmem: readwrite, inaccessiblemem: none) uwtable
define void @_ZN11OpenImageIO6v3_1_07Strutil26remove_trailing_whitespaceERNS0_17basic_string_viewIcSt11char_traitsIcEEE(ptr noundef nonnull align 8 captures(none) dereferenceable(16) %0) local_unnamed_addr #14 personality ptr @__gxx_personality_v0 {
  %2 = getelementptr inbounds nuw i8, ptr %0, i64 8
  %.promoted = load i64, ptr %2, align 8, !tbaa !64
  %.not3 = icmp eq i64 %.promoted, 0
  br i1 %.not3, label %.critedge, label %.lr.ph

.lr.ph:                                           ; preds = %1
  %3 = load ptr, ptr %0, align 8, !tbaa !67
  %invariant.gep = getelementptr i8, ptr %3, i64 -1
  br label %4

4:                                                ; preds = %.lr.ph, %7
  %5 = phi i64 [ %.promoted, %.lr.ph ], [ %8, %7 ]
  %gep = getelementptr i8, ptr %invariant.gep, i64 %5
  %6 = load i8, ptr %gep, align 1, !tbaa !3
  switch i8 %6, label %.critedge [
    i8 32, label %7
    i8 10, label %7
    i8 9, label %7
    i8 13, label %7
  ]

7:                                                ; preds = %4, %4, %4, %4
  %8 = add i64 %5, -1
  store i64 %8, ptr %2, align 8, !tbaa !64
  %.not = icmp eq i64 %8, 0
  br i1 %.not, label %.critedge, label %4, !llvm.loop !351

.critedge:                                        ; preds = %7, %4, %1
  ret void
}